target datalayout = "e-m:e-p270:32:32-p271:32:32-p272:64:64-i64:64-i128:128-f80:128-n8:16:32:64-S128"
target triple = "x86_64-pc-linux-gnu"

%struct.ossl_call_keylog_cb_args = type { i64, ptr }

@id_call = internal global i64 0, align 8
@id_i_keylog_cb = internal global i64 0, align 8
@id_i_context = internal global i64 0, align 8

; Function Attrs: inlinehint nounwind sspstrong willreturn memory(none) uwtable
define internal zeroext i1 @RB_NIL_P(i64 noundef %0) #9 {
  %2 = alloca i64, align 8
  store i64 %0, ptr %2, align 8, !tbaa !14
  %3 = load i64, ptr %2, align 8, !tbaa !14
  %4 = icmp eq i64 %3, 4
  ret i1 %4
}

; Function Attrs: nounwind sspstrong uwtable
define internal i64 @ossl_call_keylog_cb(i64 noundef %0) #0 {
  %2 = alloca i64, align 8
  %3 = alloca i64, align 8
  %4 = alloca i64, align 8
  %5 = alloca i64, align 8
  %6 = alloca i64, align 8
  %7 = alloca ptr, align 8
  %8 = alloca i32, align 4
  store i64 %0, ptr %3, align 8, !tbaa !14
  call void @llvm.lifetime.start.p0(i64 8, ptr %4) #20
  call void @llvm.lifetime.start.p0(i64 8, ptr %5) #20
  call void @llvm.lifetime.start.p0(i64 8, ptr %6) #20
  call void @llvm.lifetime.start.p0(i64 8, ptr %7) #20
  %9 = load i64, ptr %3, align 8, !tbaa !14
  %10 = inttoptr i64 %9 to ptr
  store ptr %10, ptr %7, align 8, !tbaa !99
  %11 = load ptr, ptr %7, align 8, !tbaa !99
  %12 = getelementptr inbounds nuw %struct.ossl_call_keylog_cb_args, ptr %11, i32 0, i32 0
  %13 = load i64, ptr %12, align 8, !tbaa !86
  %14 = load i64, ptr @id_i_context, align 8, !tbaa !14
  %15 = call i64 @rb_attr_get(i64 noundef %13, i64 noundef %14)
  store i64 %15, ptr %4, align 8, !tbaa !14
  %16 = load i64, ptr %4, align 8, !tbaa !14
  %17 = load i64, ptr @id_i_keylog_cb, align 8, !tbaa !14
  %18 = call i64 @rb_attr_get(i64 noundef %16, i64 noundef %17)
  store i64 %18, ptr %5, align 8, !tbaa !14
  %19 = load i64, ptr %5, align 8, !tbaa !14
  %20 = call zeroext i1 @RB_NIL_P(i64 noundef %19) #23
  br i1 %20, label %21, label %22

21:                                               ; preds = %1
  store i64 4, ptr %2, align 8
  store i32 1, ptr %8, align 4
  br label %34

22:                                               ; preds = %1
  %23 = load ptr, ptr %7, align 8, !tbaa !99
  %24 = getelementptr inbounds nuw %struct.ossl_call_keylog_cb_args, ptr %23, i32 0, i32 1
  %25 = load ptr, ptr %24, align 8, !tbaa !88
  %26 = call i64 @rb_str_new_cstr(ptr noundef %25)
  store i64 %26, ptr %6, align 8, !tbaa !14
  %27 = load i64, ptr %5, align 8, !tbaa !14
  %28 = load i64, ptr @id_call, align 8, !tbaa !14
  %29 = load ptr, ptr %7, align 8, !tbaa !99
  %30 = getelementptr inbounds nuw %struct.ossl_call_keylog_cb_args, ptr %29, i32 0, i32 0
  %31 = load i64, ptr %30, align 8, !tbaa !86
  %32 = load i64, ptr %6, align 8, !tbaa !14
  %33 = call i64 (i64, i64, i32, ...) @rb_funcall(i64 noundef %27, i64 noundef %28, i32 noundef 2, i64 noundef %31, i64 noundef %32)
  store i64 %33, ptr %2, align 8
  store i32 1, ptr %8, align 4
  br label %34

34:                                               ; preds = %22, %21
  call void @llvm.lifetime.end.p0(i64 8, ptr %7) #20
  call void @llvm.lifetime.end.p0(i64 8, ptr %6) #20
  call void @llvm.lifetime.end.p0(i64 8, ptr %5) #20
  call void @llvm.lifetime.end.p0(i64 8, ptr %4) #20
  %35 = load i64, ptr %2, align 8
  ret i64 %35
}