; Function Attrs: nounwind sspstrong uwtable
define internal i64 @ossl_call_keylog_cb(i64 noundef %0) #0 {
  %2 = inttoptr i64 %0 to ptr
  %3 = load i64, ptr %2, align 8, !tbaa !89
  %4 = load i64, ptr @id_i_context, align 8, !tbaa !10
  %5 = tail call i64 @rb_attr_get(i64 noundef %3, i64 noundef %4) #9
  %6 = load i64, ptr @id_i_keylog_cb, align 8, !tbaa !10
  %7 = tail call i64 @rb_attr_get(i64 noundef %5, i64 noundef %6) #9
  %8 = icmp eq i64 %7, 4
  br i1 %8, label %16, label %9

9:                                                ; preds = %1
  %10 = getelementptr inbounds nuw i8, ptr %2, i64 8
  %11 = load ptr, ptr %10, align 8, !tbaa !91
  %12 = tail call i64 @rb_str_new_cstr(ptr noundef %11) #9
  %13 = load i64, ptr @id_call, align 8, !tbaa !10
  %14 = load i64, ptr %2, align 8, !tbaa !89
  %15 = tail call i64 (i64, i64, i32, ...) @rb_funcall(i64 noundef %7, i64 noundef %13, i32 noundef 2, i64 noundef %14, i64 noundef %12) #9
  br label %16

16:                                               ; preds = %1, %9
  %.0 = phi i64 [ %15, %9 ], [ 4, %1 ]
  ret i64 %.0
}